; Function Attrs: mustprogress uwtable
define internal fastcc void @_ZN7rocksdb12_GLOBAL__N_130CheckColumnFamilyTimestampSizeEPNS_18ColumnFamilyHandleERKNS_5SliceE(ptr noalias align 8 %agg.result, ptr noundef %column_family, ptr nocapture noundef nonnull readonly align 8 dereferenceable(16) %ts) unnamed_addr #2 personality ptr @__gxx_personality_v0 {
entry:
  %ref.tmp = alloca %"class.rocksdb::Slice", align 8
  %ref.tmp1 = alloca %"class.rocksdb::Slice", align 8
  %ref.tmp4 = alloca %"class.rocksdb::Slice", align 8
  %ref.tmp5 = alloca %"class.rocksdb::Slice", align 8
  %ref.tmp10 = alloca %"class.rocksdb::Slice", align 8
  %ref.tmp11 = alloca %"class.rocksdb::Slice", align 8
  %tobool.not = icmp eq ptr %column_family, null
  br i1 %tobool.not, label %if.then, label %if.end

if.then:                                          ; preds = %entry
  store ptr @.str.33, ptr %ref.tmp, align 8
  %size_.i = getelementptr inbounds i8, ptr %ref.tmp, i64 8
  store i64 35, ptr %size_.i, align 8
  store ptr @.str.28, ptr %ref.tmp1, align 8
  %size_.i3 = getelementptr inbounds i8, ptr %ref.tmp1, i64 8
  store i64 0, ptr %size_.i3, align 8
  call void @_ZN7rocksdb6StatusC2ENS0_4CodeENS0_7SubCodeERKNS_5SliceES5_NS0_8SeverityE(ptr noundef nonnull align 8 dereferenceable(16) %agg.result, i8 noundef zeroext 4, i8 noundef zeroext 0, ptr noundef nonnull align 8 dereferenceable(16) %ref.tmp, ptr noundef nonnull align 8 dereferenceable(16) %ref.tmp1, i8 noundef zeroext 0)
  br label %return

if.end:                                           ; preds = %entry
  %vtable = load ptr, ptr %column_family, align 8
  %vfn = getelementptr inbounds i8, ptr %vtable, i64 40
  %0 = load ptr, ptr %vfn, align 8
  %call = tail call noundef ptr %0(ptr noundef nonnull align 8 dereferenceable(8) %column_family)
  %timestamp_size_.i = getelementptr inbounds i8, ptr %call, i64 40
  %1 = load i64, ptr %timestamp_size_.i, align 8
  %cmp = icmp eq i64 %1, 0
  br i1 %cmp, label %if.then3, label %if.end6

if.then3:                                         ; preds = %if.end
  store ptr @.str.34, ptr %ref.tmp4, align 8
  %size_.i5 = getelementptr inbounds i8, ptr %ref.tmp4, i64 8
  store i64 18, ptr %size_.i5, align 8
  store ptr @.str.28, ptr %ref.tmp5, align 8
  %size_.i6 = getelementptr inbounds i8, ptr %ref.tmp5, i64 8
  store i64 0, ptr %size_.i6, align 8
  call void @_ZN7rocksdb6StatusC2ENS0_4CodeENS0_7SubCodeERKNS_5SliceES5_NS0_8SeverityE(ptr noundef nonnull align 8 dereferenceable(16) %agg.result, i8 noundef zeroext 4, i8 noundef zeroext 0, ptr noundef nonnull align 8 dereferenceable(16) %ref.tmp4, ptr noundef nonnull align 8 dereferenceable(16) %ref.tmp5, i8 noundef zeroext 0)
  br label %return

if.end6:                                          ; preds = %if.end
  %size_.i7 = getelementptr inbounds i8, ptr %ts, i64 8
  %2 = load i64, ptr %size_.i7, align 8
  %cmp8.not = icmp eq i64 %1, %2
  br i1 %cmp8.not, label %if.end12, label %if.then9

if.then9:                                         ; preds = %if.end6
  store ptr @.str.35, ptr %ref.tmp10, align 8
  %size_.i9 = getelementptr inbounds i8, ptr %ref.tmp10, i64 8
  store i64 23, ptr %size_.i9, align 8
  store ptr @.str.28, ptr %ref.tmp11, align 8
  %size_.i10 = getelementptr inbounds i8, ptr %ref.tmp11, i64 8
  store i64 0, ptr %size_.i10, align 8
  call void @_ZN7rocksdb6StatusC2ENS0_4CodeENS0_7SubCodeERKNS_5SliceES5_NS0_8SeverityE(ptr noundef nonnull align 8 dereferenceable(16) %agg.result, i8 noundef zeroext 4, i8 noundef zeroext 0, ptr noundef nonnull align 8 dereferenceable(16) %ref.tmp10, ptr noundef nonnull align 8 dereferenceable(16) %ref.tmp11, i8 noundef zeroext 0)
  br label %return

if.end12:                                         ; preds = %if.end6
  %state_.i.i = getelementptr inbounds i8, ptr %agg.result, i64 8
  store ptr null, ptr %state_.i.i, align 8, !alias.scope !35
  tail call void @llvm.memset.p0.i64(ptr noundef nonnull align 8 dereferenceable(6) %agg.result, i8 0, i64 6, i1 false), !alias.scope !35
  br label %return

return:                                           ; preds = %if.end12, %if.then9, %if.then3, %if.then
  ret void
}